; ModuleID = 'source-C-CXX/39/2854.c'
source_filename = "source-C-CXX/39/2854.c"
target datalayout = "e-m:e-p270:32:32-p271:32:32-p272:64:64-i64:64-f80:128-n8:16:32:64-S128"
target triple = "x86_64-pc-linux-gnu"

@p = dso_local local_unnamed_addr global float 0.000000e+00, align 4
@.str = private unnamed_addr constant [15 x i8] c"%f\0A%f\0A%f\0A%f\0A%f\00", align 1
@a = dso_local global float 0.000000e+00, align 4
@b = dso_local global float 0.000000e+00, align 4
@c = dso_local global float 0.000000e+00, align 4
@d = dso_local global float 0.000000e+00, align 4
@m = dso_local global float 0.000000e+00, align 4
@s = dso_local local_unnamed_addr global float 0.000000e+00, align 4
@S = dso_local local_unnamed_addr global float 0.000000e+00, align 4
@.str.2 = private unnamed_addr constant [6 x i8] c"%.4f\0A\00", align 1
@r = dso_local local_unnamed_addr global float 0.000000e+00, align 4
@str = private unnamed_addr constant [14 x i8] c"Invalid input\00", align 1

; Function Attrs: nofree nounwind sspstrong uwtable
define dso_local i32 @main() local_unnamed_addr #0 {
  %1 = tail call i32 (i8*, ...) @__isoc99_scanf(i8* getelementptr inbounds ([15 x i8], [15 x i8]* @.str, i64 0, i64 0), float* nonnull @a, float* nonnull @b, float* nonnull @c, float* nonnull @d, float* nonnull @m)
  %2 = load float, float* @a, align 4, !tbaa !5
  %3 = load float, float* @b, align 4, !tbaa !5
  %4 = load float, float* @c, align 4, !tbaa !5
  %5 = load float, float* @d, align 4, !tbaa !5
  %6 = load float, float* @m, align 4, !tbaa !5
  %7 = fmul float %6, 1.000000e+02
  %8 = fdiv float %7, 3.600000e+02
  %9 = fadd float %2, %3
  %10 = fadd float %9, %4
  %11 = fadd float %10, %5
  %12 = fmul float %11, 5.000000e-01
  %13 = fsub float %12, %2
  %14 = fsub float %12, %3
  %15 = fmul float %13, %14
  %16 = fsub float %12, %4
  %17 = fmul float %16, %15
  %18 = fsub float %12, %5
  %19 = fmul float %18, %17
  %20 = fpext float %19 to double
  %21 = fmul float %2, %3
  %22 = fmul float %21, %4
  %23 = fmul float %22, %5
  %24 = fpext float %23 to double
  %25 = fpext float %8 to double
  %26 = tail call double @cos(double %25) #5
  %27 = fmul double %26, %24
  %28 = tail call double @cos(double %25) #5
  %29 = fmul double %27, %28
  %30 = fsub double %20, %29
  %31 = fcmp olt double %30, 0.000000e+00
  br i1 %31, label %32, label %33

32:                                               ; preds = %0
  store float -1.000000e+00, float* @S, align 4, !tbaa !5
  br label %42

33:                                               ; preds = %0
  %34 = tail call double @cos(double %25) #5
  %35 = fmul double %34, %24
  %36 = tail call double @cos(double %25) #5
  %37 = fmul double %35, %36
  %38 = fsub double %20, %37
  %39 = tail call double @sqrt(double %38) #5
  %40 = fptrunc double %39 to float
  store float %40, float* @S, align 4, !tbaa !5
  %41 = fcmp olt float %40, 0.000000e+00
  br i1 %41, label %42, label %44

42:                                               ; preds = %32, %33
  %43 = tail call i32 @puts(i8* nonnull dereferenceable(1) getelementptr inbounds ([14 x i8], [14 x i8]* @str, i64 0, i64 0))
  br label %47

44:                                               ; preds = %33
  %45 = fpext float %40 to double
  %46 = tail call i32 (i8*, ...) @printf(i8* nonnull dereferenceable(1) getelementptr inbounds ([6 x i8], [6 x i8]* @.str.2, i64 0, i64 0), double %45)
  br label %47

47:                                               ; preds = %44, %42
  ret i32 0
}

; Function Attrs: nofree nounwind
declare noundef i32 @__isoc99_scanf(i8* nocapture noundef readonly, ...) local_unnamed_addr #1

; Function Attrs: mustprogress nofree nounwind sspstrong uwtable willreturn
define dso_local float @area(float %0, float %1, float %2, float %3, float %4, float %5) local_unnamed_addr #2 {
  %7 = load float, float* @m, align 4, !tbaa !5
  %8 = fmul float %7, 1.000000e+02
  %9 = fdiv float %8, 3.600000e+02
  %10 = fadd float %0, %1
  %11 = fadd float %10, %2
  %12 = fadd float %11, %3
  %13 = fmul float %12, 5.000000e-01
  %14 = fsub float %13, %0
  %15 = fsub float %13, %1
  %16 = fmul float %14, %15
  %17 = fsub float %13, %2
  %18 = fmul float %17, %16
  %19 = fsub float %13, %3
  %20 = fmul float %19, %18
  %21 = fpext float %20 to double
  %22 = fmul float %0, %1
  %23 = fmul float %22, %2
  %24 = fmul float %23, %3
  %25 = fpext float %24 to double
  %26 = fpext float %9 to double
  %27 = tail call double @cos(double %26) #5
  %28 = fmul double %27, %25
  %29 = tail call double @cos(double %26) #5
  %30 = fmul double %28, %29
  %31 = fsub double %21, %30
  %32 = fcmp olt double %31, 0.000000e+00
  br i1 %32, label %41, label %33

33:                                               ; preds = %6
  %34 = tail call double @cos(double %26) #5
  %35 = fmul double %34, %25
  %36 = tail call double @cos(double %26) #5
  %37 = fmul double %35, %36
  %38 = fsub double %21, %37
  %39 = tail call double @sqrt(double %38) #5
  %40 = fptrunc double %39 to float
  store float %40, float* @S, align 4, !tbaa !5
  br label %41

41:                                               ; preds = %6, %33
  %42 = phi float [ %40, %33 ], [ -1.000000e+00, %6 ]
  ret float %42
}

; Function Attrs: nofree nounwind
declare noundef i32 @printf(i8* nocapture noundef readonly, ...) local_unnamed_addr #1

; Function Attrs: mustprogress nofree nounwind willreturn
declare double @cos(double) local_unnamed_addr #3

; Function Attrs: mustprogress nofree nounwind willreturn
declare double @sqrt(double) local_unnamed_addr #3

; Function Attrs: nofree nounwind
declare noundef i32 @puts(i8* nocapture noundef readonly) local_unnamed_addr #4


!llvm.module.flags = !{!0, !1, !2, !3}
!llvm.ident = !{!4}

!0 = !{i32 1, !"wchar_size", i32 4}
!1 = !{i32 7, !"PIC Level", i32 2}
!2 = !{i32 7, !"PIE Level", i32 2}
!3 = !{i32 7, !"uwtable", i32 1}
!4 = !{!"clang version 13.0.0"}
!5 = !{!6, !6, i64 0}
!6 = !{!"float", !7, i64 0}
!7 = !{!"omnipotent char", !8, i64 0}
!8 = !{!"Simple C/C++ TBAA"}
